; Function Attrs: mustprogress uwtable
define void @_ZN5Ipopt17RegisteredOptions27AddUpperBoundedNumberOptionERKNSt7__cxx1112basic_stringIcSt11char_traitsIcESaIcEEES8_dbdS8_b(ptr noundef nonnull align 8 dereferenceable(128) %0, ptr noundef nonnull align 8 dereferenceable(32) %1, ptr noundef nonnull align 8 dereferenceable(32) %2, double noundef %3, i1 noundef zeroext %4, double noundef %5, ptr noundef nonnull align 8 dereferenceable(32) %6, i1 noundef zeroext %7) unnamed_addr #3 align 2 personality ptr @__gxx_personality_v0 {
  %9 = alloca double, align 8
  %10 = alloca i8, align 1
  %11 = alloca double, align 8
  %12 = alloca %"class.Ipopt::SmartPtr.21", align 8
  %13 = alloca i32, align 4
  store double %3, ptr %9, align 8, !tbaa !85
  %14 = zext i1 %4 to i8
  store i8 %14, ptr %10, align 1, !tbaa !98
  store double %5, ptr %11, align 8, !tbaa !85
  call void @llvm.lifetime.start.p0(i64 8, ptr nonnull %12) #23
  %15 = tail call noalias noundef nonnull dereferenceable(224) ptr @_Znwm(i64 noundef 224) #27
  %16 = getelementptr inbounds nuw i8, ptr %0, i64 120
  %17 = getelementptr inbounds nuw i8, ptr %0, i64 112
  %18 = load i32, ptr %17, align 8, !tbaa !86
  %19 = add nsw i32 %18, 1
  store i32 %19, ptr %17, align 8, !tbaa !86
  invoke void @_ZN5Ipopt16RegisteredOptionC2ERKNSt7__cxx1112basic_stringIcSt11char_traitsIcESaIcEEES8_S8_RKNS_8SmartPtrINS_18RegisteredCategoryEEEib(ptr noundef nonnull align 8 dereferenceable(220) %15, ptr noundef nonnull align 8 dereferenceable(32) %1, ptr noundef nonnull align 8 dereferenceable(32) %2, ptr noundef nonnull align 8 dereferenceable(32) %6, ptr noundef nonnull align 8 dereferenceable(8) %16, i32 noundef %18, i1 noundef zeroext %7)
          to label %20 unwind label %44

20:                                               ; preds = %8
  %21 = getelementptr inbounds nuw i8, ptr %15, i64 8
  %22 = load i32, ptr %21, align 8, !tbaa !59
  %23 = add nsw i32 %22, 1
  store i32 %23, ptr %21, align 8, !tbaa !59
  store ptr %15, ptr %12, align 8, !tbaa !80
  call void @llvm.lifetime.start.p0(i64 4, ptr nonnull %13) #23
  store i32 0, ptr %13, align 4, !tbaa !96
  %24 = load ptr, ptr %15, align 8, !tbaa !32
  %25 = getelementptr inbounds nuw i8, ptr %24, i64 80
  %26 = load ptr, ptr %25, align 8
  invoke void %26(ptr noundef nonnull align 8 dereferenceable(220) %15, ptr noundef nonnull align 4 dereferenceable(4) %13)
          to label %27 unwind label %48

27:                                               ; preds = %20
  call void @llvm.lifetime.end.p0(i64 4, ptr nonnull %13) #23
  %28 = load ptr, ptr %15, align 8, !tbaa !32
  %29 = getelementptr inbounds nuw i8, ptr %28, i64 224
  %30 = load ptr, ptr %29, align 8
  invoke void %30(ptr noundef nonnull align 8 dereferenceable(220) %15, ptr noundef nonnull align 8 dereferenceable(8) %11)
          to label %31 unwind label %46

31:                                               ; preds = %27
  %32 = load ptr, ptr %15, align 8, !tbaa !32
  %33 = getelementptr inbounds nuw i8, ptr %32, i64 184
  %34 = load ptr, ptr %33, align 8
  invoke void %34(ptr noundef nonnull align 8 dereferenceable(220) %15, ptr noundef nonnull align 8 dereferenceable(8) %9, ptr noundef nonnull align 1 dereferenceable(1) %10)
          to label %35 unwind label %46

35:                                               ; preds = %31
  invoke void @_ZN5Ipopt17RegisteredOptions9AddOptionERKNS_8SmartPtrINS_16RegisteredOptionEEE(ptr noundef nonnull align 8 dereferenceable(128) %0, ptr noundef nonnull align 8 dereferenceable(8) %12)
          to label %36 unwind label %46

36:                                               ; preds = %35
  %37 = load i32, ptr %21, align 8, !tbaa !59
  %38 = add nsw i32 %37, -1
  store i32 %38, ptr %21, align 8, !tbaa !59
  %39 = icmp eq i32 %38, 0
  br i1 %39, label %40, label %_ZN5Ipopt8SmartPtrINS_16RegisteredOptionEED2Ev.exit

40:                                               ; preds = %36
  %41 = load ptr, ptr %15, align 8, !tbaa !32
  %42 = getelementptr inbounds nuw i8, ptr %41, i64 8
  %43 = load ptr, ptr %42, align 8
  call void %43(ptr noundef nonnull align 8 dereferenceable(220) %15) #23
  br label %_ZN5Ipopt8SmartPtrINS_16RegisteredOptionEED2Ev.exit

_ZN5Ipopt8SmartPtrINS_16RegisteredOptionEED2Ev.exit: ; preds = %36, %40
  call void @llvm.lifetime.end.p0(i64 8, ptr nonnull %12) #23
  ret void

44:                                               ; preds = %8
  %45 = landingpad { ptr, i32 }
          cleanup
  tail call void @_ZdlPvm(ptr noundef nonnull %15, i64 noundef 224) #24
  br label %_ZN5Ipopt8SmartPtrINS_16RegisteredOptionEED2Ev.exit11

46:                                               ; preds = %35, %31, %27
  %47 = landingpad { ptr, i32 }
          cleanup
  br label %50

48:                                               ; preds = %20
  %49 = landingpad { ptr, i32 }
          cleanup
  call void @llvm.lifetime.end.p0(i64 4, ptr nonnull %13) #23
  br label %50

50:                                               ; preds = %46, %48
  %.pn = phi { ptr, i32 } [ %47, %46 ], [ %49, %48 ]
  %51 = load i32, ptr %21, align 8, !tbaa !59
  %52 = add nsw i32 %51, -1
  store i32 %52, ptr %21, align 8, !tbaa !59
  %53 = icmp eq i32 %52, 0
  br i1 %53, label %54, label %_ZN5Ipopt8SmartPtrINS_16RegisteredOptionEED2Ev.exit11

54:                                               ; preds = %50
  %55 = load ptr, ptr %15, align 8, !tbaa !32
  %56 = getelementptr inbounds nuw i8, ptr %55, i64 8
  %57 = load ptr, ptr %56, align 8
  call void %57(ptr noundef nonnull align 8 dereferenceable(220) %15) #23
  br label %_ZN5Ipopt8SmartPtrINS_16RegisteredOptionEED2Ev.exit11

_ZN5Ipopt8SmartPtrINS_16RegisteredOptionEED2Ev.exit11: ; preds = %54, %50, %44
  %.pn.pn = phi { ptr, i32 } [ %45, %44 ], [ %.pn, %50 ], [ %.pn, %54 ]
  call void @llvm.lifetime.end.p0(i64 8, ptr nonnull %12) #23
  resume { ptr, i32 } %.pn.pn
}